target datalayout = "e-m:e-p270:32:32-p271:32:32-p272:64:64-i64:64-i128:128-f80:128-n8:16:32:64-S128"
target triple = "x86_64-pc-linux-gnu"

%struct.jv = type { i8, i8, i16, i32, %union.anon }
%union.anon = type { ptr }
%struct.jv_refcnt = type { i32 }
%struct.jvp_array = type { %struct.jv_refcnt, i32, i32, [0 x %struct.jv] }

@JV_INVALID = dso_local constant %struct.jv zeroinitializer, align 8

; Function Attrs: nounwind uwtable
define internal void @jvp_refcnt_inc(ptr noundef %0) #0 {
  %2 = alloca ptr, align 8
  store ptr %0, ptr %2, align 8, !tbaa !83
  %3 = load ptr, ptr %2, align 8, !tbaa !83
  %4 = getelementptr inbounds nuw %struct.jv_refcnt, ptr %3, i32 0, i32 0
  %5 = load i32, ptr %4, align 4, !tbaa !68
  %6 = add nsw i32 %5, 1
  store i32 %6, ptr %4, align 4, !tbaa !68
  ret void
}

; Function Attrs: nounwind uwtable
define internal i32 @jvp_array_offset(i64 %0, ptr %1) #0 {
  %3 = alloca %struct.jv, align 8
  %4 = getelementptr inbounds nuw { i64, ptr }, ptr %3, i32 0, i32 0
  store i64 %0, ptr %4, align 8
  %5 = getelementptr inbounds nuw { i64, ptr }, ptr %3, i32 0, i32 1
  store ptr %1, ptr %5, align 8
  %6 = getelementptr inbounds nuw %struct.jv, ptr %3, i32 0, i32 2
  %7 = load i16, ptr %6, align 2, !tbaa !18
  %8 = zext i16 %7 to i32
  ret i32 %8
}

; Function Attrs: nounwind uwtable
define internal ptr @jvp_array_ptr(i64 %0, ptr %1) #0 {
  %3 = alloca %struct.jv, align 8
  %4 = getelementptr inbounds nuw { i64, ptr }, ptr %3, i32 0, i32 0
  store i64 %0, ptr %4, align 8
  %5 = getelementptr inbounds nuw { i64, ptr }, ptr %3, i32 0, i32 1
  store ptr %1, ptr %5, align 8
  %6 = getelementptr inbounds nuw %struct.jv, ptr %3, i32 0, i32 4
  %7 = load ptr, ptr %6, align 8, !tbaa !12
  ret ptr %7
}

; Function Attrs: nounwind uwtable
define internal i32 @jvp_array_length(i64 %0, ptr %1) #0 {
  %3 = alloca %struct.jv, align 8
  %4 = getelementptr inbounds nuw { i64, ptr }, ptr %3, i32 0, i32 0
  store i64 %0, ptr %4, align 8
  %5 = getelementptr inbounds nuw { i64, ptr }, ptr %3, i32 0, i32 1
  store ptr %1, ptr %5, align 8
  %6 = getelementptr inbounds nuw %struct.jv, ptr %3, i32 0, i32 3
  %7 = load i32, ptr %6, align 4, !tbaa !19
  ret i32 %7
}

; Function Attrs: nounwind uwtable
define dso_local { i64, ptr } @jv_invalid() #0 {
  %1 = alloca %struct.jv, align 8
  call void @llvm.memcpy.p0.p0.i64(ptr align 8 %1, ptr align 8 @JV_INVALID, i64 16, i1 false), !tbaa.struct !11
  %2 = load { i64, ptr }, ptr %1, align 8
  ret { i64, ptr } %2
}

; Function Attrs: nounwind uwtable
define dso_local { i64, ptr } @jv_copy(i64 %0, ptr %1) #0 {
  %3 = alloca %struct.jv, align 8
  %4 = alloca %struct.jv, align 8
  %5 = getelementptr inbounds nuw { i64, ptr }, ptr %4, i32 0, i32 0
  store i64 %0, ptr %5, align 8
  %6 = getelementptr inbounds nuw { i64, ptr }, ptr %4, i32 0, i32 1
  store ptr %1, ptr %6, align 8
  %7 = getelementptr inbounds nuw %struct.jv, ptr %4, i32 0, i32 0
  %8 = load i8, ptr %7, align 8, !tbaa !4
  %9 = zext i8 %8 to i32
  %10 = and i32 %9, 128
  %11 = icmp ne i32 %10, 0
  br i1 %11, label %12, label %15

12:                                               ; preds = %2
  %13 = getelementptr inbounds nuw %struct.jv, ptr %4, i32 0, i32 4
  %14 = load ptr, ptr %13, align 8, !tbaa !12
  call void @jvp_refcnt_inc(ptr noundef %14)
  br label %15

15:                                               ; preds = %12, %2
  call void @llvm.memcpy.p0.p0.i64(ptr align 8 %3, ptr align 8 %4, i64 16, i1 false), !tbaa.struct !11
  %16 = load { i64, ptr }, ptr %3, align 8
  ret { i64, ptr } %16
}

; Function Attrs: nounwind uwtable
define internal ptr @jvp_array_read(i64 %0, ptr %1, i32 noundef %2) #0 {
  %4 = alloca ptr, align 8
  %5 = alloca %struct.jv, align 8
  %6 = alloca i32, align 4
  %7 = alloca ptr, align 8
  %8 = getelementptr inbounds nuw { i64, ptr }, ptr %5, i32 0, i32 0
  store i64 %0, ptr %8, align 8
  %9 = getelementptr inbounds nuw { i64, ptr }, ptr %5, i32 0, i32 1
  store ptr %1, ptr %9, align 8
  store i32 %2, ptr %6, align 4, !tbaa !10
  %10 = load i32, ptr %6, align 4, !tbaa !10
  %11 = icmp sge i32 %10, 0
  br i1 %11, label %12, label %37

12:                                               ; preds = %3
  %13 = load i32, ptr %6, align 4, !tbaa !10
  %14 = getelementptr inbounds nuw { i64, ptr }, ptr %5, i32 0, i32 0
  %15 = load i64, ptr %14, align 8
  %16 = getelementptr inbounds nuw { i64, ptr }, ptr %5, i32 0, i32 1
  %17 = load ptr, ptr %16, align 8
  %18 = call i32 @jvp_array_length(i64 %15, ptr %17)
  %19 = icmp slt i32 %13, %18
  br i1 %19, label %20, label %37

20:                                               ; preds = %12
  call void @llvm.lifetime.start.p0(i64 8, ptr %7) #11
  %21 = getelementptr inbounds nuw { i64, ptr }, ptr %5, i32 0, i32 0
  %22 = load i64, ptr %21, align 8
  %23 = getelementptr inbounds nuw { i64, ptr }, ptr %5, i32 0, i32 1
  %24 = load ptr, ptr %23, align 8
  %25 = call ptr @jvp_array_ptr(i64 %22, ptr %24)
  store ptr %25, ptr %7, align 8, !tbaa !14
  %26 = load ptr, ptr %7, align 8, !tbaa !14
  %27 = getelementptr inbounds nuw %struct.jvp_array, ptr %26, i32 0, i32 3
  %28 = load i32, ptr %6, align 4, !tbaa !10
  %29 = getelementptr inbounds nuw { i64, ptr }, ptr %5, i32 0, i32 0
  %30 = load i64, ptr %29, align 8
  %31 = getelementptr inbounds nuw { i64, ptr }, ptr %5, i32 0, i32 1
  %32 = load ptr, ptr %31, align 8
  %33 = call i32 @jvp_array_offset(i64 %30, ptr %32)
  %34 = add nsw i32 %28, %33
  %35 = sext i32 %34 to i64
  %36 = getelementptr inbounds [0 x %struct.jv], ptr %27, i64 0, i64 %35
  store ptr %36, ptr %4, align 8
  call void @llvm.lifetime.end.p0(i64 8, ptr %7) #11
  br label %38

37:                                               ; preds = %12, %3
  store ptr null, ptr %4, align 8
  br label %38

38:                                               ; preds = %37, %20
  %39 = load ptr, ptr %4, align 8
  ret ptr %39
}

; Function Attrs: nounwind uwtable
define dso_local { i64, ptr } @jv_array_get(i64 %0, ptr %1, i32 noundef %2) #0 {
  %4 = alloca %struct.jv, align 8
  %5 = alloca %struct.jv, align 8
  %6 = alloca i32, align 4
  %7 = alloca ptr, align 8
  %8 = alloca %struct.jv, align 8
  %9 = alloca %struct.jv, align 8
  %10 = getelementptr inbounds nuw { i64, ptr }, ptr %5, i32 0, i32 0
  store i64 %0, ptr %10, align 8
  %11 = getelementptr inbounds nuw { i64, ptr }, ptr %5, i32 0, i32 1
  store ptr %1, ptr %11, align 8
  store i32 %2, ptr %6, align 4, !tbaa !10
  call void @llvm.lifetime.start.p0(i64 8, ptr %7) #11
  %12 = load i32, ptr %6, align 4, !tbaa !10
  %13 = getelementptr inbounds nuw { i64, ptr }, ptr %5, i32 0, i32 0
  %14 = load i64, ptr %13, align 8
  %15 = getelementptr inbounds nuw { i64, ptr }, ptr %5, i32 0, i32 1
  %16 = load ptr, ptr %15, align 8
  %17 = call ptr @jvp_array_read(i64 %14, ptr %16, i32 noundef %12)
  store ptr %17, ptr %7, align 8, !tbaa !14
  %18 = load ptr, ptr %7, align 8, !tbaa !14
  %19 = icmp ne ptr %18, null
  br i1 %19, label %20, label %31

20:                                               ; preds = %3
  call void @llvm.lifetime.start.p0(i64 16, ptr %8) #11
  %21 = load ptr, ptr %7, align 8, !tbaa !14
  %22 = getelementptr inbounds nuw { i64, ptr }, ptr %21, i32 0, i32 0
  %23 = load i64, ptr %22, align 8
  %24 = getelementptr inbounds nuw { i64, ptr }, ptr %21, i32 0, i32 1
  %25 = load ptr, ptr %24, align 8
  %26 = call { i64, ptr } @jv_copy(i64 %23, ptr %25)
  %27 = getelementptr inbounds nuw { i64, ptr }, ptr %8, i32 0, i32 0
  %28 = extractvalue { i64, ptr } %26, 0
  store i64 %28, ptr %27, align 8
  %29 = getelementptr inbounds nuw { i64, ptr }, ptr %8, i32 0, i32 1
  %30 = extractvalue { i64, ptr } %26, 1
  store ptr %30, ptr %29, align 8
  call void @llvm.memcpy.p0.p0.i64(ptr align 8 %4, ptr align 8 %8, i64 16, i1 false), !tbaa.struct !11
  call void @llvm.lifetime.end.p0(i64 16, ptr %8) #11
  br label %37

31:                                               ; preds = %3
  call void @llvm.lifetime.start.p0(i64 16, ptr %9) #11
  %32 = call { i64, ptr } @jv_invalid()
  %33 = getelementptr inbounds nuw { i64, ptr }, ptr %9, i32 0, i32 0
  %34 = extractvalue { i64, ptr } %32, 0
  store i64 %34, ptr %33, align 8
  %35 = getelementptr inbounds nuw { i64, ptr }, ptr %9, i32 0, i32 1
  %36 = extractvalue { i64, ptr } %32, 1
  store ptr %36, ptr %35, align 8
  call void @llvm.memcpy.p0.p0.i64(ptr align 8 %4, ptr align 8 %9, i64 16, i1 false), !tbaa.struct !11
  call void @llvm.lifetime.end.p0(i64 16, ptr %9) #11
  br label %37

37:                                               ; preds = %31, %20
  %38 = getelementptr inbounds nuw { i64, ptr }, ptr %5, i32 0, i32 0
  %39 = load i64, ptr %38, align 8
  %40 = getelementptr inbounds nuw { i64, ptr }, ptr %5, i32 0, i32 1
  %41 = load ptr, ptr %40, align 8
  call void @jv_free(i64 %39, ptr %41)
  call void @llvm.lifetime.end.p0(i64 8, ptr %7) #11
  %42 = load { i64, ptr }, ptr %4, align 8
  ret { i64, ptr } %42
}