; Function Attrs: nounwind uwtable
define dso_local { i64, ptr } @jv_array_get(i64 %0, ptr %1, i32 noundef %2) local_unnamed_addr #2 {
  %4 = icmp slt i32 %2, 0
  %.sroa.1.0.extract.shift.i.i = lshr i64 %0, 32
  %.sroa.1.0.extract.trunc.i.i = trunc nuw i64 %.sroa.1.0.extract.shift.i.i to i32
  %5 = icmp sge i32 %2, %.sroa.1.0.extract.trunc.i.i
  %or.cond.i.not = select i1 %4, i1 true, i1 %5
  br i1 %or.cond.i.not, label %jv_copy.exit, label %6

6:                                                ; preds = %3
  %7 = getelementptr inbounds nuw i8, ptr %1, i64 16
  %8 = trunc i64 %0 to i32
  %9 = lshr i32 %8, 16
  %10 = add nuw nsw i32 %2, %9
  %11 = zext nneg i32 %10 to i64
  %12 = getelementptr inbounds nuw [0 x %struct.jv], ptr %7, i64 0, i64 %11
  %13 = load i64, ptr %12, align 8
  %14 = getelementptr inbounds nuw i8, ptr %12, i64 8
  %15 = load ptr, ptr %14, align 8
  %16 = and i64 %13, 128
  %.not.i = icmp eq i64 %16, 0
  br i1 %.not.i, label %jv_copy.exit, label %17

17:                                               ; preds = %6
  %18 = load i32, ptr %15, align 4, !tbaa !9
  %19 = add nsw i32 %18, 1
  store i32 %19, ptr %15, align 4, !tbaa !9
  br label %jv_copy.exit

jv_copy.exit:                                     ; preds = %17, %6, %3
  %.sroa.07.0 = phi i64 [ 0, %3 ], [ %13, %6 ], [ %13, %17 ]
  %.sroa.38.0 = phi ptr [ null, %3 ], [ %15, %6 ], [ %15, %17 ]
  tail call void @jv_free(i64 %0, ptr %1)
  %.fca.0.insert = insertvalue { i64, ptr } poison, i64 %.sroa.07.0, 0
  %.fca.1.insert = insertvalue { i64, ptr } %.fca.0.insert, ptr %.sroa.38.0, 1
  ret { i64, ptr } %.fca.1.insert
}